; Function Attrs: mustprogress uwtable
define hidden void @_ZN3nla7grobner25check_missing_propagationERKN2dd6solver8equationE(ptr noundef nonnull readonly align 8 captures(none) dereferenceable(1448) %0, ptr noundef nonnull readonly align 8 captures(none) dereferenceable(32) %1) local_unnamed_addr #4 align 2 {
  %3 = tail call noundef zeroext i1 @_ZN3nla7grobner15is_nla_conflictERKN2dd6solver8equationE(ptr noundef nonnull align 8 dereferenceable(1448) %0, ptr noundef nonnull align 8 dereferenceable(32) %1)
  br i1 %3, label %4, label %15

4:                                                ; preds = %2
  %5 = tail call noundef i32 @_Z19get_verbosity_levelv()
  %6 = icmp ugt i32 %5, 1
  br i1 %6, label %7, label %15

7:                                                ; preds = %4
  %8 = tail call noundef zeroext i1 @_Z11is_threadedv()
  br i1 %8, label %9, label %12

9:                                                ; preds = %7
  tail call void @_Z12verbose_lockv()
  %10 = tail call noundef nonnull align 8 dereferenceable(8) ptr @_Z14verbose_streamv()
  %11 = tail call noundef nonnull align 8 dereferenceable(8) ptr @_ZSt16__ostream_insertIcSt11char_traitsIcEERSt13basic_ostreamIT_T0_ES6_PKS3_l(ptr noundef nonnull align 8 dereferenceable(8) %10, ptr noundef nonnull @.str.15, i64 noundef 16)
  tail call void @_Z14verbose_unlockv()
  br label %15

12:                                               ; preds = %7
  %13 = tail call noundef nonnull align 8 dereferenceable(8) ptr @_Z14verbose_streamv()
  %14 = tail call noundef nonnull align 8 dereferenceable(8) ptr @_ZSt16__ostream_insertIcSt11char_traitsIcEERSt13basic_ostreamIT_T0_ES6_PKS3_l(ptr noundef nonnull align 8 dereferenceable(8) %13, ptr noundef nonnull @.str.15, i64 noundef 16)
  br label %15

15:                                               ; preds = %2, %4, %12, %9
  ret void
}